target datalayout = "e-m:e-p270:32:32-p271:32:32-p272:64:64-i64:64-i128:128-f80:128-n8:16:32:64-S128"
target triple = "x86_64-unknown-linux-gnu"

%"class.grpc_core::promise_filter_detail::BaseCallData" = type { %"class.grpc_core::Activity", %"class.grpc_core::Wakeable", ptr, ptr, ptr, ptr, %"class.grpc_core::Timestamp", %"class.grpc_core::CallFinalization", ptr, ptr, %"struct.std::atomic", ptr, ptr, ptr, ptr }
%"class.grpc_core::Activity" = type { %"class.grpc_core::Orphanable" }
%"class.grpc_core::Orphanable" = type { ptr }
%"class.grpc_core::Wakeable" = type { ptr }
%"class.grpc_core::Timestamp" = type { i64 }
%"class.grpc_core::CallFinalization" = type { ptr }
%"struct.std::atomic" = type { %"struct.std::__atomic_base" }
%"struct.std::__atomic_base" = type { ptr }
%"class.grpc_core::Activity::ScopedActivity" = type { ptr }
%struct.grpc_closure = type { %union.anon, ptr, ptr, %union.anon.9 }
%union.anon = type { ptr }
%union.anon.9 = type { i64 }
%"class.absl::lts_20230802::Status" = type { i64 }
%"class.grpc_core::promise_filter_detail::BaseCallData::CapturedBatch" = type { ptr }
%"struct.std::_Tuple_impl.63" = type { %"struct.std::_Head_base.64" }
%"struct.std::_Head_base.64" = type { %"class.grpc_core::Arena::PooledDeleter" }
%"class.grpc_core::Arena::PooledDeleter" = type { i8 }
%"class.grpc_core::promise_filter_detail::ClientCallData" = type { %"class.grpc_core::promise_filter_detail::BaseCallData", [8 x i8], %"class.grpc_core::ArenaPromise", %"class.grpc_core::promise_filter_detail::BaseCallData::CapturedBatch", ptr, %"class.std::unique_ptr.207", ptr, ptr, %struct.grpc_closure, %"class.absl::lts_20230802::Status", i32, i32, ptr, %"class.grpc_core::ClientInitialMetadataOutstandingToken" }
%"class.grpc_core::ArenaPromise" = type { %"struct.grpc_core::arena_promise_detail::VtableAndArg" }
%"struct.grpc_core::arena_promise_detail::VtableAndArg" = type { ptr, [8 x i8], %"struct.grpc_core::arena_promise_detail::ArgType" }
%"struct.grpc_core::arena_promise_detail::ArgType" = type { [8 x i8], [8 x i8] }
%"class.std::unique_ptr.207" = type { %"struct.std::__uniq_ptr_data.208" }
%"struct.std::__uniq_ptr_data.208" = type { %"class.std::__uniq_ptr_impl.209" }
%"class.std::__uniq_ptr_impl.209" = type { %"class.std::tuple.210" }
%"class.std::tuple.210" = type { %"struct.std::_Tuple_impl.211" }
%"struct.std::_Tuple_impl.211" = type { %"struct.std::_Tuple_impl.63", %"struct.std::_Head_base.212" }
%"struct.std::_Head_base.212" = type { ptr }
%"class.grpc_core::ClientInitialMetadataOutstandingToken" = type { ptr }
%"class.grpc_core::promise_filter_detail::ClientCallData::PollContext" = type <{ %"class.grpc_core::ManualConstructor.289", ptr, ptr, i8, i8, [6 x i8] }>
%"class.grpc_core::ManualConstructor.289" = type { [8 x i8] }

@.str.5 = private unnamed_addr constant [132 x i8] c"generated/home/dtcxzyw/WorkSpace/Projects/compilers/llvm-opt-benchmark/bench/grpc/grpc/src/core/lib/channel/promise_based_filter.cc\00", align 1
@_ZN9grpc_core8Activity19g_current_activity_E = external thread_local global ptr, align 8
@.str.156 = private unnamed_addr constant [28 x i8] c"self_->poll_ctx_ == nullptr\00", align 1

; Function Attrs: uwtable
define linkonce_odr hidden noundef ptr @_ZTWN9grpc_core8Activity19g_current_activity_E() #15 comdat {
  br i1 icmp ne (ptr @_ZTHN9grpc_core8Activity19g_current_activity_E, ptr null), label %1, label %2

1:                                                ; preds = %0
  call void @_ZTHN9grpc_core8Activity19g_current_activity_E()
  br label %2

2:                                                ; preds = %1, %0
  %3 = call align 8 ptr @llvm.threadlocal.address.p0(ptr align 8 @_ZN9grpc_core8Activity19g_current_activity_E)
  ret ptr %3
}

; Function Attrs: mustprogress uwtable
define linkonce_odr void @_ZN9grpc_core8Activity14ScopedActivityC2EPS0_(ptr noundef nonnull align 8 dereferenceable(8) %this, ptr noundef %activity) unnamed_addr #4 comdat align 2 {
entry:
  %this.addr = alloca ptr, align 8
  %activity.addr = alloca ptr, align 8
  store ptr %this, ptr %this.addr, align 8
  store ptr %activity, ptr %activity.addr, align 8
  %this1 = load ptr, ptr %this.addr, align 8
  %prior_activity_ = getelementptr inbounds %"class.grpc_core::Activity::ScopedActivity", ptr %this1, i32 0, i32 0
  %0 = call ptr @_ZTWN9grpc_core8Activity19g_current_activity_E()
  %1 = load ptr, ptr %0, align 8
  store ptr %1, ptr %prior_activity_, align 8
  %2 = load ptr, ptr %activity.addr, align 8
  %3 = call ptr @_ZTWN9grpc_core8Activity19g_current_activity_E()
  store ptr %2, ptr %3, align 8
  ret void
}

; Function Attrs: mustprogress uwtable
define linkonce_odr void @_ZN9grpc_core9ConstructINS_8Activity14ScopedActivityEJRPNS_21promise_filter_detail14ClientCallDataEEEEvPT_DpOT0_(ptr noundef %p, ptr noundef nonnull align 8 dereferenceable(8) %args) #4 comdat {
entry:
  %p.addr = alloca ptr, align 8
  %args.addr = alloca ptr, align 8
  store ptr %p, ptr %p.addr, align 8
  store ptr %args, ptr %args.addr, align 8
  %0 = load ptr, ptr %p.addr, align 8
  %1 = load ptr, ptr %args.addr, align 8
  %2 = load ptr, ptr %1, align 8
  call void @_ZN9grpc_core8Activity14ScopedActivityC2EPS0_(ptr noundef nonnull align 8 dereferenceable(8) %0, ptr noundef %2)
  ret void
}

; Function Attrs: mustprogress nounwind uwtable
define linkonce_odr noundef ptr @_ZN9grpc_core17ManualConstructorINS_8Activity14ScopedActivityEE3getEv(ptr noundef nonnull align 8 dereferenceable(8) %this) #5 comdat align 2 {
entry:
  %this.addr = alloca ptr, align 8
  store ptr %this, ptr %this.addr, align 8
  %this1 = load ptr, ptr %this.addr, align 8
  %space_ = getelementptr inbounds %"class.grpc_core::ManualConstructor.289", ptr %this1, i32 0, i32 0
  ret ptr %space_
}

; Function Attrs: mustprogress uwtable
define linkonce_odr void @_ZN9grpc_core17ManualConstructorINS_8Activity14ScopedActivityEE4InitIJRPNS_21promise_filter_detail14ClientCallDataEEEEvDpOT_(ptr noundef nonnull align 8 dereferenceable(8) %this, ptr noundef nonnull align 8 dereferenceable(8) %args) #4 comdat align 2 {
entry:
  %this.addr = alloca ptr, align 8
  %args.addr = alloca ptr, align 8
  store ptr %this, ptr %this.addr, align 8
  store ptr %args, ptr %args.addr, align 8
  %this1 = load ptr, ptr %this.addr, align 8
  %call = call noundef ptr @_ZN9grpc_core17ManualConstructorINS_8Activity14ScopedActivityEE3getEv(ptr noundef nonnull align 8 dereferenceable(8) %this1)
  %0 = load ptr, ptr %args.addr, align 8
  call void @_ZN9grpc_core9ConstructINS_8Activity14ScopedActivityEJRPNS_21promise_filter_detail14ClientCallDataEEEEvPT_DpOT0_(ptr noundef %call, ptr noundef nonnull align 8 dereferenceable(8) %0)
  ret void
}

; Function Attrs: mustprogress uwtable
define linkonce_odr void @_ZN9grpc_core21promise_filter_detail14ClientCallData11PollContextC2EPS1_PNS0_12BaseCallData7FlusherE(ptr noundef nonnull align 8 dereferenceable(26) %this, ptr noundef %self, ptr noundef %flusher) unnamed_addr #4 comdat align 2 {
entry:
  %this.addr = alloca ptr, align 8
  %self.addr = alloca ptr, align 8
  %flusher.addr = alloca ptr, align 8
  store ptr %this, ptr %this.addr, align 8
  store ptr %self, ptr %self.addr, align 8
  store ptr %flusher, ptr %flusher.addr, align 8
  %this1 = load ptr, ptr %this.addr, align 8
  %self_ = getelementptr inbounds %"class.grpc_core::promise_filter_detail::ClientCallData::PollContext", ptr %this1, i32 0, i32 1
  %0 = load ptr, ptr %self.addr, align 8
  store ptr %0, ptr %self_, align 8
  %flusher_ = getelementptr inbounds %"class.grpc_core::promise_filter_detail::ClientCallData::PollContext", ptr %this1, i32 0, i32 2
  %1 = load ptr, ptr %flusher.addr, align 8
  store ptr %1, ptr %flusher_, align 8
  %repoll_ = getelementptr inbounds %"class.grpc_core::promise_filter_detail::ClientCallData::PollContext", ptr %this1, i32 0, i32 3
  store i8 0, ptr %repoll_, align 8
  br label %do.body

do.body:                                          ; preds = %entry
  %self_2 = getelementptr inbounds %"class.grpc_core::promise_filter_detail::ClientCallData::PollContext", ptr %this1, i32 0, i32 1
  %2 = load ptr, ptr %self_2, align 8
  %poll_ctx_ = getelementptr inbounds %"class.grpc_core::promise_filter_detail::ClientCallData", ptr %2, i32 0, i32 12
  %3 = load ptr, ptr %poll_ctx_, align 16
  %cmp = icmp eq ptr %3, null
  %lnot = xor i1 %cmp, true
  br i1 %lnot, label %if.then, label %if.end

if.then:                                          ; preds = %do.body
  call void @gpr_assertion_failed(ptr noundef @.str.5, i32 noundef 1017, ptr noundef @.str.156) #17
  unreachable

if.end:                                           ; preds = %do.body
  br label %do.end

do.end:                                           ; preds = %if.end
  %self_3 = getelementptr inbounds %"class.grpc_core::promise_filter_detail::ClientCallData::PollContext", ptr %this1, i32 0, i32 1
  %4 = load ptr, ptr %self_3, align 8
  %poll_ctx_4 = getelementptr inbounds %"class.grpc_core::promise_filter_detail::ClientCallData", ptr %4, i32 0, i32 12
  store ptr %this1, ptr %poll_ctx_4, align 16
  %scoped_activity_5 = getelementptr inbounds %"class.grpc_core::promise_filter_detail::ClientCallData::PollContext", ptr %this1, i32 0, i32 0
  %self_6 = getelementptr inbounds %"class.grpc_core::promise_filter_detail::ClientCallData::PollContext", ptr %this1, i32 0, i32 1
  call void @_ZN9grpc_core17ManualConstructorINS_8Activity14ScopedActivityEE4InitIJRPNS_21promise_filter_detail14ClientCallDataEEEEvDpOT_(ptr noundef nonnull align 8 dereferenceable(8) %scoped_activity_5, ptr noundef nonnull align 8 dereferenceable(8) %self_6)
  %have_scoped_activity_ = getelementptr inbounds %"class.grpc_core::promise_filter_detail::ClientCallData::PollContext", ptr %this1, i32 0, i32 4
  store i8 1, ptr %have_scoped_activity_, align 1
  ret void
}

; Function Attrs: mustprogress uwtable
define void @_ZN9grpc_core21promise_filter_detail14ClientCallData18WakeInsideCombinerEPNS0_12BaseCallData7FlusherE(ptr noundef nonnull align 16 dereferenceable(272) %this, ptr noundef %flusher) unnamed_addr #4 align 2 personality ptr @__gxx_personality_v0 {
entry:
  %this.addr = alloca ptr, align 8
  %flusher.addr = alloca ptr, align 8
  %ref.tmp = alloca %"class.grpc_core::promise_filter_detail::ClientCallData::PollContext", align 8
  %exn.slot = alloca ptr, align 8
  %ehselector.slot = alloca i32, align 4
  store ptr %this, ptr %this.addr, align 8
  store ptr %flusher, ptr %flusher.addr, align 8
  %this1 = load ptr, ptr %this.addr, align 8
  %0 = load ptr, ptr %flusher.addr, align 8
  call void @_ZN9grpc_core21promise_filter_detail14ClientCallData11PollContextC2EPS1_PNS0_12BaseCallData7FlusherE(ptr noundef nonnull align 8 dereferenceable(26) %ref.tmp, ptr noundef %this1, ptr noundef %0)
  invoke void @_ZN9grpc_core21promise_filter_detail14ClientCallData11PollContext3RunEv(ptr noundef nonnull align 8 dereferenceable(26) %ref.tmp)
          to label %invoke.cont unwind label %lpad

invoke.cont:                                      ; preds = %entry
  call void @_ZN9grpc_core21promise_filter_detail14ClientCallData11PollContextD2Ev(ptr noundef nonnull align 8 dereferenceable(26) %ref.tmp) #3
  ret void

lpad:                                             ; preds = %entry
  %1 = landingpad { ptr, i32 }
          cleanup
  %2 = extractvalue { ptr, i32 } %1, 0
  store ptr %2, ptr %exn.slot, align 8
  %3 = extractvalue { ptr, i32 } %1, 1
  store i32 %3, ptr %ehselector.slot, align 4
  call void @_ZN9grpc_core21promise_filter_detail14ClientCallData11PollContextD2Ev(ptr noundef nonnull align 8 dereferenceable(26) %ref.tmp) #3
  br label %eh.resume

eh.resume:                                        ; preds = %lpad
  %exn = load ptr, ptr %exn.slot, align 8
  %sel = load i32, ptr %ehselector.slot, align 4
  %lpad.val = insertvalue { ptr, i32 } poison, ptr %exn, 0
  %lpad.val2 = insertvalue { ptr, i32 } %lpad.val, i32 %sel, 1
  resume { ptr, i32 } %lpad.val2
}