; Function Attrs: uwtable
define void @_ZN9grpc_core21promise_filter_detail14ClientCallData18WakeInsideCombinerEPNS0_12BaseCallData7FlusherE(ptr noundef nonnull align 16 dereferenceable(272) %this, ptr noundef %flusher) unnamed_addr #21 align 2 personality ptr @__gxx_personality_v0 {
entry:
  %ref.tmp = alloca %"class.grpc_core::promise_filter_detail::ClientCallData::PollContext", align 8
  %self_.i = getelementptr inbounds i8, ptr %ref.tmp, i64 8
  store ptr %this, ptr %self_.i, align 8
  %flusher_.i = getelementptr inbounds i8, ptr %ref.tmp, i64 16
  store ptr %flusher, ptr %flusher_.i, align 8
  %repoll_.i = getelementptr inbounds i8, ptr %ref.tmp, i64 24
  store i8 0, ptr %repoll_.i, align 8
  %poll_ctx_.i = getelementptr inbounds i8, ptr %this, i64 256
  %0 = load ptr, ptr %poll_ctx_.i, align 16
  %cmp.not.i = icmp eq ptr %0, null
  br i1 %cmp.not.i, label %do.end.i, label %if.then.i

if.then.i:                                        ; preds = %entry
  tail call void @gpr_assertion_failed(ptr noundef nonnull @.str.5, i32 noundef 1017, ptr noundef nonnull @.str.156) #33
  unreachable

do.end.i:                                         ; preds = %entry
  store ptr %ref.tmp, ptr %poll_ctx_.i, align 16
  br i1 icmp ne (ptr @_ZTHN9grpc_core8Activity19g_current_activity_E, ptr null), label %1, label %_ZTWN9grpc_core8Activity19g_current_activity_E.exit.i.i.i.i

1:                                                ; preds = %do.end.i
  call void @_ZTHN9grpc_core8Activity19g_current_activity_E()
  br label %_ZTWN9grpc_core8Activity19g_current_activity_E.exit.i.i.i.i

_ZTWN9grpc_core8Activity19g_current_activity_E.exit.i.i.i.i: ; preds = %1, %do.end.i
  %2 = call noundef align 8 ptr @llvm.threadlocal.address.p0(ptr align 8 @_ZN9grpc_core8Activity19g_current_activity_E)
  %3 = load ptr, ptr %2, align 8
  store ptr %3, ptr %ref.tmp, align 8
  br i1 icmp ne (ptr @_ZTHN9grpc_core8Activity19g_current_activity_E, ptr null), label %4, label %_ZN9grpc_core21promise_filter_detail14ClientCallData11PollContextC2EPS1_PNS0_12BaseCallData7FlusherE.exit

4:                                                ; preds = %_ZTWN9grpc_core8Activity19g_current_activity_E.exit.i.i.i.i
  call void @_ZTHN9grpc_core8Activity19g_current_activity_E()
  br label %_ZN9grpc_core21promise_filter_detail14ClientCallData11PollContextC2EPS1_PNS0_12BaseCallData7FlusherE.exit

_ZN9grpc_core21promise_filter_detail14ClientCallData11PollContextC2EPS1_PNS0_12BaseCallData7FlusherE.exit: ; preds = %_ZTWN9grpc_core8Activity19g_current_activity_E.exit.i.i.i.i, %4
  store ptr %this, ptr %2, align 8
  %have_scoped_activity_.i = getelementptr inbounds i8, ptr %ref.tmp, i64 25
  store i8 1, ptr %have_scoped_activity_.i, align 1
  invoke void @_ZN9grpc_core21promise_filter_detail14ClientCallData11PollContext3RunEv(ptr noundef nonnull align 8 dereferenceable(26) %ref.tmp)
          to label %invoke.cont unwind label %lpad

invoke.cont:                                      ; preds = %_ZN9grpc_core21promise_filter_detail14ClientCallData11PollContextC2EPS1_PNS0_12BaseCallData7FlusherE.exit
  call void @_ZN9grpc_core21promise_filter_detail14ClientCallData11PollContextD2Ev(ptr noundef nonnull align 8 dereferenceable(26) %ref.tmp) #31
  ret void

lpad:                                             ; preds = %_ZN9grpc_core21promise_filter_detail14ClientCallData11PollContextC2EPS1_PNS0_12BaseCallData7FlusherE.exit
  %5 = landingpad { ptr, i32 }
          cleanup
  call void @_ZN9grpc_core21promise_filter_detail14ClientCallData11PollContextD2Ev(ptr noundef nonnull align 8 dereferenceable(26) %ref.tmp) #31
  resume { ptr, i32 } %5
}